; ModuleID = '1103.c'
source_filename = "1103.c"
target datalayout = "e-m:e-p270:32:32-p271:32:32-p272:64:64-i64:64-f80:128-n8:16:32:64-S128"
target triple = "x86_64-pc-linux-gnu"

@.str = private unnamed_addr constant [5 x i8] c"%d%d\00", align 1
@x1 = common dso_local global i32 0, align 4
@yy1 = common dso_local global i32 0, align 4
@.str.1 = private unnamed_addr constant [3 x i8] c"%d\00", align 1
@a = common dso_local global [100 x [100 x i32]] zeroinitializer, align 16
@x2 = common dso_local global i32 0, align 4
@y2 = common dso_local global i32 0, align 4
@b = common dso_local global [100 x [100 x i32]] zeroinitializer, align 16
@c = common dso_local global [100 x [100 x i32]] zeroinitializer, align 16
@.str.2 = private unnamed_addr constant [4 x i8] c" %d\00", align 1
@.str.3 = private unnamed_addr constant [1 x i8] zeroinitializer, align 1

; Function Attrs: noinline nounwind uwtable
define dso_local i32 @main() #0 {
  %1 = alloca i32, align 4
  %2 = alloca i32, align 4
  %3 = alloca i32, align 4
  %4 = alloca i32, align 4
  store i32 0, i32* %1, align 4
  %5 = call i32 (i8*, ...) @__isoc99_scanf(i8* getelementptr inbounds ([5 x i8], [5 x i8]* @.str, i64 0, i64 0), i32* @x1, i32* @yy1)
  store i32 0, i32* %2, align 4
  br label %6

6:                                                ; preds = %27, %0
  %7 = load i32, i32* %2, align 4
  %8 = load i32, i32* @x1, align 4
  %9 = icmp slt i32 %7, %8
  br i1 %9, label %10, label %30

10:                                               ; preds = %6
  store i32 0, i32* %3, align 4
  br label %11

11:                                               ; preds = %23, %10
  %12 = load i32, i32* %3, align 4
  %13 = load i32, i32* @yy1, align 4
  %14 = icmp slt i32 %12, %13
  br i1 %14, label %15, label %26

15:                                               ; preds = %11
  %16 = load i32, i32* %2, align 4
  %17 = sext i32 %16 to i64
  %18 = getelementptr inbounds [100 x [100 x i32]], [100 x [100 x i32]]* @a, i64 0, i64 %17
  %19 = load i32, i32* %3, align 4
  %20 = sext i32 %19 to i64
  %21 = getelementptr inbounds [100 x i32], [100 x i32]* %18, i64 0, i64 %20
  %22 = call i32 (i8*, ...) @__isoc99_scanf(i8* getelementptr inbounds ([3 x i8], [3 x i8]* @.str.1, i64 0, i64 0), i32* %21)
  br label %23

23:                                               ; preds = %15
  %24 = load i32, i32* %3, align 4
  %25 = add nsw i32 %24, 1
  store i32 %25, i32* %3, align 4
  br label %11

26:                                               ; preds = %11
  br label %27

27:                                               ; preds = %26
  %28 = load i32, i32* %2, align 4
  %29 = add nsw i32 %28, 1
  store i32 %29, i32* %2, align 4
  br label %6

30:                                               ; preds = %6
  %31 = call i32 (i8*, ...) @__isoc99_scanf(i8* getelementptr inbounds ([5 x i8], [5 x i8]* @.str, i64 0, i64 0), i32* @x2, i32* @y2)
  store i32 0, i32* %2, align 4
  br label %32

32:                                               ; preds = %53, %30
  %33 = load i32, i32* %2, align 4
  %34 = load i32, i32* @x2, align 4
  %35 = icmp slt i32 %33, %34
  br i1 %35, label %36, label %56

36:                                               ; preds = %32
  store i32 0, i32* %3, align 4
  br label %37

37:                                               ; preds = %49, %36
  %38 = load i32, i32* %3, align 4
  %39 = load i32, i32* @y2, align 4
  %40 = icmp slt i32 %38, %39
  br i1 %40, label %41, label %52

41:                                               ; preds = %37
  %42 = load i32, i32* %2, align 4
  %43 = sext i32 %42 to i64
  %44 = getelementptr inbounds [100 x [100 x i32]], [100 x [100 x i32]]* @b, i64 0, i64 %43
  %45 = load i32, i32* %3, align 4
  %46 = sext i32 %45 to i64
  %47 = getelementptr inbounds [100 x i32], [100 x i32]* %44, i64 0, i64 %46
  %48 = call i32 (i8*, ...) @__isoc99_scanf(i8* getelementptr inbounds ([3 x i8], [3 x i8]* @.str.1, i64 0, i64 0), i32* %47)
  br label %49

49:                                               ; preds = %41
  %50 = load i32, i32* %3, align 4
  %51 = add nsw i32 %50, 1
  store i32 %51, i32* %3, align 4
  br label %37

52:                                               ; preds = %37
  br label %53

53:                                               ; preds = %52
  %54 = load i32, i32* %2, align 4
  %55 = add nsw i32 %54, 1
  store i32 %55, i32* %2, align 4
  br label %32

56:                                               ; preds = %32
  %57 = load i32, i32* @yy1, align 4
  %58 = load i32, i32* @x2, align 4
  %59 = icmp ne i32 %57, %58
  br i1 %59, label %60, label %61

60:                                               ; preds = %56
  store i32 0, i32* %1, align 4
  br label %145

61:                                               ; preds = %56
  store i32 0, i32* %2, align 4
  br label %62

62:                                               ; preds = %108, %61
  %63 = load i32, i32* %2, align 4
  %64 = load i32, i32* @x1, align 4
  %65 = icmp slt i32 %63, %64
  br i1 %65, label %66, label %111

66:                                               ; preds = %62
  store i32 0, i32* %3, align 4
  br label %67

67:                                               ; preds = %104, %66
  %68 = load i32, i32* %3, align 4
  %69 = load i32, i32* @y2, align 4
  %70 = icmp slt i32 %68, %69
  br i1 %70, label %71, label %107

71:                                               ; preds = %67
  store i32 0, i32* %4, align 4
  br label %72

72:                                               ; preds = %100, %71
  %73 = load i32, i32* %4, align 4
  %74 = load i32, i32* @x2, align 4
  %75 = icmp slt i32 %73, %74
  br i1 %75, label %76, label %103

76:                                               ; preds = %72
  %77 = load i32, i32* %2, align 4
  %78 = sext i32 %77 to i64
  %79 = getelementptr inbounds [100 x [100 x i32]], [100 x [100 x i32]]* @a, i64 0, i64 %78
  %80 = load i32, i32* %4, align 4
  %81 = sext i32 %80 to i64
  %82 = getelementptr inbounds [100 x i32], [100 x i32]* %79, i64 0, i64 %81
  %83 = load i32, i32* %82, align 4
  %84 = load i32, i32* %4, align 4
  %85 = sext i32 %84 to i64
  %86 = getelementptr inbounds [100 x [100 x i32]], [100 x [100 x i32]]* @b, i64 0, i64 %85
  %87 = load i32, i32* %3, align 4
  %88 = sext i32 %87 to i64
  %89 = getelementptr inbounds [100 x i32], [100 x i32]* %86, i64 0, i64 %88
  %90 = load i32, i32* %89, align 4
  %91 = mul nsw i32 %83, %90
  %92 = load i32, i32* %2, align 4
  %93 = sext i32 %92 to i64
  %94 = getelementptr inbounds [100 x [100 x i32]], [100 x [100 x i32]]* @c, i64 0, i64 %93
  %95 = load i32, i32* %3, align 4
  %96 = sext i32 %95 to i64
  %97 = getelementptr inbounds [100 x i32], [100 x i32]* %94, i64 0, i64 %96
  %98 = load i32, i32* %97, align 4
  %99 = add nsw i32 %98, %91
  store i32 %99, i32* %97, align 4
  br label %100

100:                                              ; preds = %76
  %101 = load i32, i32* %4, align 4
  %102 = add nsw i32 %101, 1
  store i32 %102, i32* %4, align 4
  br label %72

103:                                              ; preds = %72
  br label %104

104:                                              ; preds = %103
  %105 = load i32, i32* %3, align 4
  %106 = add nsw i32 %105, 1
  store i32 %106, i32* %3, align 4
  br label %67

107:                                              ; preds = %67
  br label %108

108:                                              ; preds = %107
  %109 = load i32, i32* %2, align 4
  %110 = add nsw i32 %109, 1
  store i32 %110, i32* %2, align 4
  br label %62

111:                                              ; preds = %62
  store i32 0, i32* %2, align 4
  br label %112

112:                                              ; preds = %141, %111
  %113 = load i32, i32* %2, align 4
  %114 = load i32, i32* @x1, align 4
  %115 = icmp slt i32 %113, %114
  br i1 %115, label %116, label %144

116:                                              ; preds = %112
  %117 = load i32, i32* %2, align 4
  %118 = sext i32 %117 to i64
  %119 = getelementptr inbounds [100 x [100 x i32]], [100 x [100 x i32]]* @c, i64 0, i64 %118
  %120 = getelementptr inbounds [100 x i32], [100 x i32]* %119, i64 0, i64 0
  %121 = load i32, i32* %120, align 16
  %122 = call i32 (i8*, ...) @printf(i8* getelementptr inbounds ([3 x i8], [3 x i8]* @.str.1, i64 0, i64 0), i32 %121)
  store i32 1, i32* %3, align 4
  br label %123

123:                                              ; preds = %136, %116
  %124 = load i32, i32* %3, align 4
  %125 = load i32, i32* @y2, align 4
  %126 = icmp slt i32 %124, %125
  br i1 %126, label %127, label %139

127:                                              ; preds = %123
  %128 = load i32, i32* %2, align 4
  %129 = sext i32 %128 to i64
  %130 = getelementptr inbounds [100 x [100 x i32]], [100 x [100 x i32]]* @c, i64 0, i64 %129
  %131 = load i32, i32* %3, align 4
  %132 = sext i32 %131 to i64
  %133 = getelementptr inbounds [100 x i32], [100 x i32]* %130, i64 0, i64 %132
  %134 = load i32, i32* %133, align 4
  %135 = call i32 (i8*, ...) @printf(i8* getelementptr inbounds ([4 x i8], [4 x i8]* @.str.2, i64 0, i64 0), i32 %134)
  br label %136

136:                                              ; preds = %127
  %137 = load i32, i32* %3, align 4
  %138 = add nsw i32 %137, 1
  store i32 %138, i32* %3, align 4
  br label %123

139:                                              ; preds = %123
  %140 = call i32 @puts(i8* getelementptr inbounds ([1 x i8], [1 x i8]* @.str.3, i64 0, i64 0))
  br label %141

141:                                              ; preds = %139
  %142 = load i32, i32* %2, align 4
  %143 = add nsw i32 %142, 1
  store i32 %143, i32* %2, align 4
  br label %112

144:                                              ; preds = %112
  store i32 0, i32* %1, align 4
  br label %145

145:                                              ; preds = %144, %60
  %146 = load i32, i32* %1, align 4
  ret i32 %146
}

declare dso_local i32 @__isoc99_scanf(i8*, ...) #1

declare dso_local i32 @printf(i8*, ...) #1

declare dso_local i32 @puts(i8*) #1


!llvm.module.flags = !{!0}
!llvm.ident = !{!1}

!0 = !{i32 1, !"wchar_size", i32 4}
!1 = !{!"clang version 10.0.0-4ubuntu1 "}
